; Function Attrs: nounwind uwtable
define dso_local noundef zeroext i1 @listEventTriggers(ptr noundef %0, i1 noundef zeroext %1) local_unnamed_addr #0 {
  %3 = alloca %struct.PQExpBufferData, align 8
  %4 = alloca i32, align 4
  %5 = alloca %struct.PQExpBufferData, align 8
  %6 = alloca %struct.printQueryOpt, align 8
  %7 = alloca [32 x i8], align 16
  call void @llvm.lifetime.start.p0(i64 24, ptr nonnull %5) #8
  call void @llvm.lifetime.start.p0(i64 168, ptr nonnull %6) #8
  call void @llvm.memcpy.p0.p0.i64(ptr noundef nonnull align 8 dereferenceable(168) %6, ptr noundef nonnull align 8 dereferenceable(168) getelementptr inbounds nuw (i8, ptr @pset, i64 48), i64 168, i1 false)
  %8 = load i32, ptr getelementptr inbounds nuw (i8, ptr @pset, i64 332), align 4
  %9 = icmp slt i32 %8, 90300
  br i1 %9, label %10, label %12

10:                                               ; preds = %2
  call void @llvm.lifetime.start.p0(i64 32, ptr nonnull %7) #8
  %11 = call ptr @formatPGVersionNumber(i32 noundef %8, i1 noundef zeroext false, ptr noundef nonnull %7, i64 noundef 32) #8
  call void (i32, i32, ptr, ...) @pg_log_generic(i32 noundef 4, i32 noundef 0, ptr noundef nonnull @.str.368, ptr noundef %11) #8
  call void @llvm.lifetime.end.p0(i64 32, ptr nonnull %7) #8
  br label %29

12:                                               ; preds = %2
  call void @initPQExpBuffer(ptr noundef nonnull %5) #8
  call void (ptr, ptr, ...) @printfPQExpBuffer(ptr noundef nonnull %5, ptr noundef nonnull @.str.369, ptr noundef nonnull @.str.2, ptr noundef nonnull @.str.370, ptr noundef nonnull @.str.26, ptr noundef nonnull @.str.371, ptr noundef nonnull @.str.372, ptr noundef nonnull @.str.373, ptr noundef nonnull @.str.374, ptr noundef nonnull @.str.375, ptr noundef nonnull @.str.118, ptr noundef nonnull @.str.376) #8
  br i1 %1, label %13, label %14

13:                                               ; preds = %12
  call void (ptr, ptr, ...) @appendPQExpBuffer(ptr noundef nonnull %5, ptr noundef nonnull @.str.377, ptr noundef nonnull @.str.6) #8
  br label %14

14:                                               ; preds = %13, %12
  call void @appendPQExpBufferStr(ptr noundef nonnull %5, ptr noundef nonnull @.str.378) #8
  call void @llvm.lifetime.start.p0(i64 24, ptr nonnull %3) #8
  call void @llvm.lifetime.start.p0(i64 4, ptr nonnull %4) #8
  call void @initPQExpBuffer(ptr noundef nonnull %3) #8
  %15 = load ptr, ptr @pset, align 8
  %16 = call zeroext i1 @processSQLNamePattern(ptr noundef %15, ptr noundef nonnull %5, ptr noundef %0, i1 noundef zeroext false, i1 noundef zeroext false, ptr noundef null, ptr noundef nonnull @.str.379, ptr noundef null, ptr noundef null, ptr noundef nonnull %3, ptr noundef nonnull %4) #8
  %17 = load i32, ptr %4, align 4
  %.not19.i = icmp slt i32 %17, 1
  br i1 %.not19.i, label %19, label %18

18:                                               ; preds = %14
  call void (i32, i32, ptr, ...) @pg_log_generic(i32 noundef 4, i32 noundef 0, ptr noundef nonnull @.str.912, ptr noundef %0) #8
  call void @termPQExpBuffer(ptr noundef nonnull %3) #8
  call void @llvm.lifetime.end.p0(i64 4, ptr nonnull %4) #8
  call void @llvm.lifetime.end.p0(i64 24, ptr nonnull %3) #8
  call void @termPQExpBuffer(ptr noundef nonnull %5) #8
  br label %29

19:                                               ; preds = %14
  call void @termPQExpBuffer(ptr noundef nonnull %3) #8
  call void @llvm.lifetime.end.p0(i64 4, ptr nonnull %4) #8
  call void @llvm.lifetime.end.p0(i64 24, ptr nonnull %3) #8
  call void @appendPQExpBufferStr(ptr noundef nonnull %5, ptr noundef nonnull @.str.380) #8
  %20 = load ptr, ptr %5, align 8
  %21 = call ptr @PSQLexec(ptr noundef %20) #8
  call void @termPQExpBuffer(ptr noundef nonnull %5) #8
  %.not = icmp eq ptr %21, null
  br i1 %.not, label %29, label %22

22:                                               ; preds = %19
  %23 = getelementptr inbounds nuw i8, ptr %6, i64 128
  store ptr @.str.381, ptr %23, align 8
  %24 = getelementptr inbounds nuw i8, ptr %6, i64 144
  store i8 1, ptr %24, align 8
  %25 = getelementptr inbounds nuw i8, ptr %6, i64 152
  store ptr @listEventTriggers.translate_columns, ptr %25, align 8
  %26 = getelementptr inbounds nuw i8, ptr %6, i64 160
  store i32 7, ptr %26, align 8
  %27 = load ptr, ptr getelementptr inbounds nuw (i8, ptr @pset, i64 16), align 8
  %28 = load ptr, ptr getelementptr inbounds nuw (i8, ptr @pset, i64 376), align 8
  call void @printQuery(ptr noundef nonnull %21, ptr noundef nonnull %6, ptr noundef %27, i1 noundef zeroext false, ptr noundef %28) #8
  call void @PQclear(ptr noundef nonnull %21) #8
  br label %29

29:                                               ; preds = %19, %22, %18, %10
  %.0 = phi i1 [ true, %10 ], [ true, %22 ], [ false, %18 ], [ false, %19 ]
  call void @llvm.lifetime.end.p0(i64 168, ptr nonnull %6) #8
  call void @llvm.lifetime.end.p0(i64 24, ptr nonnull %5) #8
  ret i1 %.0
}